target datalayout = "e-m:e-p270:32:32-p271:32:32-p272:64:64-i64:64-i128:128-f80:128-n8:16:32:64-S128"
target triple = "x86_64-pc-linux-gnu"

%"struct.std::array" = type { [19 x %"struct.nix::ExperimentalFeatureDetails"] }
%"struct.nix::ExperimentalFeatureDetails" = type { i32, %"class.std::basic_string_view", %"class.std::basic_string_view", %"class.std::basic_string_view" }
%"class.std::basic_string_view" = type { i64, ptr }

; Function Attrs: mustprogress nounwind uwtable
define linkonce_odr noundef nonnull align 8 dereferenceable(56) ptr @_ZNSt14__array_traitsIN3nix26ExperimentalFeatureDetailsELm19EE6_S_refERA19_KS1_m(ptr noundef nonnull align 8 dereferenceable(1064) %0, i64 noundef %1) #2 comdat align 2 {
  %3 = alloca ptr, align 8
  %4 = alloca i64, align 8
  store ptr %0, ptr %3, align 8
  store i64 %1, ptr %4, align 8
  %5 = load ptr, ptr %3, align 8
  %6 = load i64, ptr %4, align 8
  %7 = getelementptr inbounds [19 x %"struct.nix::ExperimentalFeatureDetails"], ptr %5, i64 0, i64 %6
  ret ptr %7
}

; Function Attrs: mustprogress nounwind uwtable
define linkonce_odr noundef nonnull align 8 dereferenceable(56) ptr @_ZNKSt5arrayIN3nix26ExperimentalFeatureDetailsELm19EEixEm(ptr noundef nonnull align 8 dereferenceable(1064) %0, i64 noundef %1) #2 comdat align 2 {
  %3 = alloca ptr, align 8
  %4 = alloca i64, align 8
  store ptr %0, ptr %3, align 8
  store i64 %1, ptr %4, align 8
  %5 = load ptr, ptr %3, align 8
  %6 = getelementptr inbounds %"struct.std::array", ptr %5, i32 0, i32 0
  %7 = load i64, ptr %4, align 8
  %8 = call noundef nonnull align 8 dereferenceable(56) ptr @_ZNSt14__array_traitsIN3nix26ExperimentalFeatureDetailsELm19EE6_S_refERA19_KS1_m(ptr noundef nonnull align 8 dereferenceable(1064) %6, i64 noundef %7) #1
  ret ptr %8
}

; Function Attrs: mustprogress nounwind uwtable
define { i64, ptr } @_ZN3nix23showExperimentalFeatureENS_19ExperimentalFeatureE(i32 noundef %0) #2 {
  %2 = alloca %"class.std::basic_string_view", align 8
  %3 = alloca i32, align 4
  store i32 %0, ptr %3, align 4
  %4 = load i32, ptr %3, align 4
  %5 = sext i32 %4 to i64
  %6 = call noundef nonnull align 8 dereferenceable(56) ptr @_ZNKSt5arrayIN3nix26ExperimentalFeatureDetailsELm19EEixEm(ptr noundef nonnull align 8 dereferenceable(1064) @_ZN3nixL16xpFeatureDetailsE, i64 noundef %5) #1
  %7 = getelementptr inbounds %"struct.nix::ExperimentalFeatureDetails", ptr %6, i32 0, i32 1
  call void @llvm.memcpy.p0.p0.i64(ptr align 8 %2, ptr align 8 %7, i64 16, i1 false)
  %8 = load { i64, ptr }, ptr %2, align 8
  ret { i64, ptr } %8
}