; Function Attrs: mustprogress nofree norecurse nosync nounwind willreturn memory(none) uwtable
define { i64, ptr } @_ZN3nix23showExperimentalFeatureENS_19ExperimentalFeatureE(i32 noundef %0) local_unnamed_addr #4 {
  %2 = sext i32 %0 to i64
  %3 = getelementptr inbounds [19 x %"struct.nix::ExperimentalFeatureDetails"], ptr @_ZN3nixL16xpFeatureDetailsE, i64 0, i64 %2
  %4 = getelementptr inbounds i8, ptr %3, i64 8
  %.sroa.0.0.copyload = load i64, ptr %4, align 8
  %.sroa.2.0..sroa_idx = getelementptr inbounds i8, ptr %3, i64 16
  %.sroa.2.0.copyload = load ptr, ptr %.sroa.2.0..sroa_idx, align 8
  %.fca.0.insert = insertvalue { i64, ptr } poison, i64 %.sroa.0.0.copyload, 0
  %.fca.1.insert = insertvalue { i64, ptr } %.fca.0.insert, ptr %.sroa.2.0.copyload, 1
  ret { i64, ptr } %.fca.1.insert
}